; Function Attrs: nofree norecurse nosync nounwind memory(argmem: readwrite) uwtable
define internal void @pred_planar_0_9(ptr noundef writeonly captures(none) %0, ptr noundef readonly captures(none) %1, ptr noundef readonly captures(none) %2, i64 noundef %3) #2 {
  %5 = getelementptr inbounds nuw i8, ptr %1, i64 8
  %6 = getelementptr inbounds nuw i8, ptr %2, i64 8
  br label %.preheader

.preheader:                                       ; preds = %4, %37
  %indvars.iv6 = phi i64 [ 0, %4 ], [ %indvars.iv.next7, %37 ]
  %7 = getelementptr inbounds nuw i16, ptr %2, i64 %indvars.iv6
  %indvars.iv.next7 = add nuw nsw i64 %indvars.iv6, 1
  %8 = mul nsw i64 %3, %indvars.iv6
  %9 = getelementptr i16, ptr %0, i64 %8
  %10 = trunc i64 %indvars.iv6 to i32
  %11 = sub i32 3, %10
  %12 = trunc nuw nsw i64 %indvars.iv.next7 to i32
  br label %13

13:                                               ; preds = %.preheader, %13
  %indvars.iv = phi i64 [ 0, %.preheader ], [ %indvars.iv.next, %13 ]
  %14 = load i16, ptr %7, align 2, !tbaa !124
  %15 = zext i16 %14 to i32
  %16 = trunc i64 %indvars.iv to i32
  %17 = sub i32 3, %16
  %18 = mul nuw nsw i32 %17, %15
  %indvars.iv.next = add nuw nsw i64 %indvars.iv, 1
  %19 = load i16, ptr %5, align 2, !tbaa !124
  %20 = zext i16 %19 to i32
  %21 = trunc nuw nsw i64 %indvars.iv.next to i32
  %22 = mul nuw nsw i32 %21, %20
  %23 = getelementptr inbounds nuw i16, ptr %1, i64 %indvars.iv
  %24 = load i16, ptr %23, align 2, !tbaa !124
  %25 = zext i16 %24 to i32
  %26 = mul nuw nsw i32 %11, %25
  %27 = load i16, ptr %6, align 2, !tbaa !124
  %28 = zext i16 %27 to i32
  %29 = mul nuw nsw i32 %12, %28
  %30 = add nuw nsw i32 %18, 4
  %31 = add nuw nsw i32 %30, %22
  %32 = add nuw nsw i32 %31, %26
  %33 = add nuw nsw i32 %32, %29
  %34 = lshr i32 %33, 3
  %35 = trunc i32 %34 to i16
  %36 = getelementptr i16, ptr %9, i64 %indvars.iv
  store i16 %35, ptr %36, align 2, !tbaa !124
  %exitcond.not = icmp eq i64 %indvars.iv.next, 4
  br i1 %exitcond.not, label %37, label %13, !llvm.loop !158

37:                                               ; preds = %13
  %exitcond9.not = icmp eq i64 %indvars.iv.next7, 4
  br i1 %exitcond9.not, label %pred_planar_9.exit, label %.preheader, !llvm.loop !159

pred_planar_9.exit:                               ; preds = %37
  ret void
}